target datalayout = "e-m:e-p270:32:32-p271:32:32-p272:64:64-i64:64-i128:128-f80:128-n8:16:32:64-S128"
target triple = "x86_64-pc-linux-gnu"

%struct.grpc_iomgr_object = type { ptr, ptr, ptr }

@_ZL4g_mu = internal global i64 0, align 8
@_ZL5g_rcv = internal global i64 0, align 8

; Function Attrs: mustprogress uwtable
define void @_Z28grpc_iomgr_unregister_objectP17grpc_iomgr_object(ptr noundef %0) #4 {
  %2 = alloca ptr, align 8
  store ptr %0, ptr %2, align 8, !tbaa !37
  call void @gpr_mu_lock(ptr noundef @_ZL4g_mu)
  %3 = load ptr, ptr %2, align 8, !tbaa !37
  %4 = getelementptr inbounds nuw %struct.grpc_iomgr_object, ptr %3, i32 0, i32 2
  %5 = load ptr, ptr %4, align 8, !tbaa !7
  %6 = load ptr, ptr %2, align 8, !tbaa !37
  %7 = getelementptr inbounds nuw %struct.grpc_iomgr_object, ptr %6, i32 0, i32 1
  %8 = load ptr, ptr %7, align 8, !tbaa !12
  %9 = getelementptr inbounds nuw %struct.grpc_iomgr_object, ptr %8, i32 0, i32 2
  store ptr %5, ptr %9, align 8, !tbaa !7
  %10 = load ptr, ptr %2, align 8, !tbaa !37
  %11 = getelementptr inbounds nuw %struct.grpc_iomgr_object, ptr %10, i32 0, i32 1
  %12 = load ptr, ptr %11, align 8, !tbaa !12
  %13 = load ptr, ptr %2, align 8, !tbaa !37
  %14 = getelementptr inbounds nuw %struct.grpc_iomgr_object, ptr %13, i32 0, i32 2
  %15 = load ptr, ptr %14, align 8, !tbaa !7
  %16 = getelementptr inbounds nuw %struct.grpc_iomgr_object, ptr %15, i32 0, i32 1
  store ptr %12, ptr %16, align 8, !tbaa !12
  call void @gpr_cv_signal(ptr noundef @_ZL5g_rcv)
  call void @gpr_mu_unlock(ptr noundef @_ZL4g_mu)
  %17 = load ptr, ptr %2, align 8, !tbaa !37
  %18 = getelementptr inbounds nuw %struct.grpc_iomgr_object, ptr %17, i32 0, i32 0
  %19 = load ptr, ptr %18, align 8, !tbaa !13
  call void @gpr_free(ptr noundef %19)
  ret void
}