; Function Attrs: mustprogress uwtable
define void @_Z28grpc_iomgr_unregister_objectP17grpc_iomgr_object(ptr noundef readonly captures(none) %0) local_unnamed_addr #6 {
  tail call void @gpr_mu_lock(ptr noundef nonnull @_ZL4g_mu)
  %2 = getelementptr inbounds nuw i8, ptr %0, i64 16
  %3 = load ptr, ptr %2, align 8, !tbaa !26
  %4 = getelementptr inbounds nuw i8, ptr %0, i64 8
  %5 = load ptr, ptr %4, align 8, !tbaa !30
  %6 = getelementptr inbounds nuw i8, ptr %5, i64 16
  store ptr %3, ptr %6, align 8, !tbaa !26
  %7 = getelementptr inbounds nuw i8, ptr %3, i64 8
  store ptr %5, ptr %7, align 8, !tbaa !30
  tail call void @gpr_cv_signal(ptr noundef nonnull @_ZL5g_rcv)
  tail call void @gpr_mu_unlock(ptr noundef nonnull @_ZL4g_mu)
  %8 = load ptr, ptr %0, align 8, !tbaa !31
  tail call void @gpr_free(ptr noundef %8)
  ret void
}